; Function Attrs: mustprogress nounwind uwtable
define void @_ZN7Imf_3_218MultiPartInputFileD2Ev(ptr noundef nonnull align 8 dereferenceable(16) %this) unnamed_addr #7 align 2 {
entry:
  store ptr getelementptr inbounds ({ [4 x ptr] }, ptr @_ZTVN7Imf_3_218MultiPartInputFileE, i64 0, i32 0, i64 2), ptr %this, align 8
  %_data = getelementptr inbounds i8, ptr %this, i64 8
  %0 = load ptr, ptr %_data, align 8
  %_M_left.i.i = getelementptr inbounds i8, ptr %0, i64 120
  %1 = load ptr, ptr %_M_left.i.i, align 8
  %add.ptr.i.i3 = getelementptr inbounds i8, ptr %0, i64 104
  %cmp.i.not4 = icmp eq ptr %1, %add.ptr.i.i3
  br i1 %cmp.i.not4, label %delete.notnull12, label %for.body

for.body:                                         ; preds = %entry, %for.inc
  %.pr6 = phi ptr [ %.pr, %for.inc ], [ %0, %entry ]
  %it.sroa.0.05 = phi ptr [ %call.i, %for.inc ], [ %1, %entry ]
  %second = getelementptr inbounds i8, ptr %it.sroa.0.05, i64 40
  %2 = load ptr, ptr %second, align 8
  %isnull = icmp eq ptr %2, null
  br i1 %isnull, label %for.inc, label %delete.notnull

delete.notnull:                                   ; preds = %for.body
  %vtable = load ptr, ptr %2, align 8
  %vfn = getelementptr inbounds i8, ptr %vtable, i64 8
  %3 = load ptr, ptr %vfn, align 8
  tail call void %3(ptr noundef nonnull align 8 dereferenceable(8) %2) #22
  %.pr.pre = load ptr, ptr %_data, align 8
  br label %for.inc

for.inc:                                          ; preds = %for.body, %delete.notnull
  %.pr = phi ptr [ %.pr6, %for.body ], [ %.pr.pre, %delete.notnull ]
  %call.i = tail call noundef ptr @_ZSt18_Rb_tree_incrementPSt18_Rb_tree_node_base(ptr noundef nonnull %it.sroa.0.05) #27
  %add.ptr.i.i = getelementptr inbounds i8, ptr %.pr, i64 104
  %cmp.i.not = icmp eq ptr %call.i, %add.ptr.i.i
  br i1 %cmp.i.not, label %for.end, label %for.body, !llvm.loop !15

for.end:                                          ; preds = %for.inc
  %isnull11 = icmp eq ptr %.pr, null
  br i1 %isnull11, label %delete.end13, label %delete.notnull12

delete.notnull12:                                 ; preds = %entry, %for.end
  %.lcssa10 = phi ptr [ %.pr, %for.end ], [ %0, %entry ]
  tail call void @_ZN7Imf_3_218MultiPartInputFile4DataD2Ev(ptr noundef nonnull align 8 dereferenceable(168) %.lcssa10) #22
  tail call void @_ZdlPv(ptr noundef nonnull %.lcssa10) #25
  br label %delete.end13

delete.end13:                                     ; preds = %delete.notnull12, %for.end
  tail call void @_ZN7Imf_3_216GenericInputFileD2Ev(ptr noundef nonnull align 8 dereferenceable(8) %this) #22
  ret void
}